TN:
SF:/home/albio/Proj_cpp_2022/src/ndarray.cpp
FN:45,_ZN7NDArrayIdEC2ESt6vectorItSaItEEPd
FN:45,_ZN7NDArrayIiEC2ESt6vectorItSaItEEPi
FN:70,_ZN7NDArrayIiEC2ESt6vectorItSaItEES1_IiSaIiEE
FN:94,_ZN7NDArrayIiE11getPositionESt6vectorIiSaIiEE
FN:149,_ZN7NDArrayIiEixEj
FN:149,_ZN7NDArrayIdEixEj
FN:170,_ZN7NDArrayIiE8getValueEv
FN:180,_ZN7NDArrayIdE8getShapeEv
FN:180,_ZN7NDArrayIiE8getShapeEv
FN:190,_ZN7NDArrayIiE5countEv
FNDA:132,_ZN7NDArrayIiEC2ESt6vectorItSaItEES1_IiSaIiEE
FNDA:96,_ZN7NDArrayIiE11getPositionESt6vectorIiSaIiEE
FNDA:48,_ZN7NDArrayIdEixEj
FNDA:72,_ZN7NDArrayIiEC2ESt6vectorItSaItEEPi
FNDA:60,_ZN7NDArrayIiE5countEv
FNDA:60,_ZN7NDArrayIiE8getShapeEv
FNDA:48,_ZN7NDArrayIiE8getValueEv
FNDA:24,_ZN7NDArrayIdE8getShapeEv
FNDA:120,_ZN7NDArrayIiEixEj
FNDA:12,_ZN7NDArrayIdEC2ESt6vectorItSaItEEPd
FNF:10
FNH:10
DA:45,108
DA:47,84
DA:48,12
DA:50,72
DA:52,72
DA:53,264
DA:54,192
DA:56,552
DA:57,480
DA:60,72
DA:70,132
DA:71,132
DA:74,132
DA:75,0
DA:77,132
DA:79,132
DA:80,336
DA:81,204
DA:83,132
DA:84,0
DA:85,132
DA:86,132
DA:94,96
DA:97,96
DA:98,12
DA:100,84
DA:103,84
DA:104,264
DA:106,192
DA:107,12
DA:110,180
DA:111,384
DA:112,204
DA:116,180
DA:120,144
DA:122,72
DA:123,108
DA:124,36
DA:125,36
DA:127,72
DA:130,72
DA:133,48
DA:134,120
DA:135,120
DA:136,120
DA:138,72
DA:139,48
DA:140,144
DA:149,168
DA:150,168
DA:151,168
DA:153,0
DA:170,48
DA:172,48
DA:180,84
DA:182,84
DA:190,60
DA:192,60
DA:193,120
DA:194,60
DA:195,60
LF:61
LH:58
end_of_record
